; Function Attrs: nounwind uwtable
define ptr @l_Lean_Meta_forEachExpr_x27___rarg___lambda__7(ptr noundef %0, ptr noundef %1, ptr noundef %2, ptr noundef %3, ptr noundef %4, ptr noundef %5, ptr noundef %6, ptr noundef %7, ptr noundef %8) #0 {
  %10 = ptrtoint ptr %8 to i64
  %11 = and i64 %10, 1
  %.not = icmp eq i64 %11, 0
  br i1 %.not, label %12, label %lean_inc.exit23

12:                                               ; preds = %9
  %.val.i = load i32, ptr %8, align 4, !tbaa !4
  %13 = icmp sgt i32 %.val.i, 0
  br i1 %13, label %14, label %16, !prof !13

14:                                               ; preds = %12
  %15 = add nuw i32 %.val.i, 1
  store i32 %15, ptr %8, align 4, !tbaa !4
  br label %lean_inc.exit23

16:                                               ; preds = %12
  %.not.i = icmp eq i32 %.val.i, 0
  br i1 %.not.i, label %lean_inc.exit23, label %17

17:                                               ; preds = %16
  tail call void @lean_inc_ref_cold(ptr noundef nonnull %8) #4
  br label %lean_inc.exit23

lean_inc.exit23:                                  ; preds = %17, %16, %14, %9
  %18 = ptrtoint ptr %0 to i64
  %19 = and i64 %18, 1
  %.not30 = icmp eq i64 %19, 0
  br i1 %.not30, label %20, label %lean_inc.exit22

20:                                               ; preds = %lean_inc.exit23
  %.val.i24 = load i32, ptr %0, align 4, !tbaa !4
  %21 = icmp sgt i32 %.val.i24, 0
  br i1 %21, label %22, label %24, !prof !13

22:                                               ; preds = %20
  %23 = add nuw i32 %.val.i24, 1
  store i32 %23, ptr %0, align 4, !tbaa !4
  br label %lean_inc.exit22

24:                                               ; preds = %20
  %.not.i25 = icmp eq i32 %.val.i24, 0
  br i1 %.not.i25, label %lean_inc.exit22, label %25

25:                                               ; preds = %24
  tail call void @lean_inc_ref_cold(ptr noundef nonnull %0) #4
  br label %lean_inc.exit22

lean_inc.exit22:                                  ; preds = %25, %24, %22, %lean_inc.exit23
  %26 = tail call ptr @l_Lean_Meta_forEachExpr_x27_visit___rarg(ptr noundef %0, ptr noundef %1, ptr noundef %2, ptr noundef %3, ptr noundef %4, ptr noundef %5, ptr noundef %8)
  %27 = ptrtoint ptr %7 to i64
  %28 = and i64 %27, 1
  %.not31 = icmp eq i64 %28, 0
  br i1 %.not31, label %29, label %lean_inc.exit

29:                                               ; preds = %lean_inc.exit22
  %.val.i27 = load i32, ptr %7, align 4, !tbaa !4
  %30 = icmp sgt i32 %.val.i27, 0
  br i1 %30, label %31, label %33, !prof !13

31:                                               ; preds = %29
  %32 = add nuw i32 %.val.i27, 1
  store i32 %32, ptr %7, align 4, !tbaa !4
  br label %lean_inc.exit

33:                                               ; preds = %29
  %.not.i28 = icmp eq i32 %.val.i27, 0
  br i1 %.not.i28, label %lean_inc.exit, label %34

34:                                               ; preds = %33
  tail call void @lean_inc_ref_cold(ptr noundef nonnull %7) #4
  br label %lean_inc.exit

lean_inc.exit:                                    ; preds = %34, %33, %31, %lean_inc.exit22
  tail call void @lean_inc_heartbeat() #4
  %35 = tail call noalias ptr @mi_malloc_small(i64 noundef 56) #4
  %36 = icmp eq ptr %35, null
  br i1 %36, label %37, label %lean_alloc_closure.exit

37:                                               ; preds = %lean_inc.exit
  tail call void @lean_internal_panic_out_of_memory() #5
  unreachable

lean_alloc_closure.exit:                          ; preds = %lean_inc.exit
  %38 = getelementptr inbounds nuw i8, ptr %35, i64 4
  store i32 1, ptr %35, align 4, !tbaa !4
  store i32 -184549320, ptr %38, align 4
  %39 = getelementptr inbounds nuw i8, ptr %35, i64 8
  store ptr @l_Lean_Meta_forEachExpr_x27___rarg___lambda__6, ptr %39, align 8, !tbaa !9
  %40 = getelementptr inbounds nuw i8, ptr %35, i64 16
  store i16 5, ptr %40, align 8, !tbaa !11
  %41 = getelementptr inbounds nuw i8, ptr %35, i64 18
  store i16 4, ptr %41, align 2, !tbaa !11
  %42 = getelementptr inbounds nuw i8, ptr %35, i64 24
  store ptr %8, ptr %42, align 8, !tbaa !9
  %43 = getelementptr inbounds nuw i8, ptr %35, i64 32
  store ptr %6, ptr %43, align 8, !tbaa !9
  %44 = getelementptr inbounds nuw i8, ptr %35, i64 40
  store ptr %0, ptr %44, align 8, !tbaa !9
  %45 = getelementptr inbounds nuw i8, ptr %35, i64 48
  store ptr %7, ptr %45, align 8, !tbaa !9
  %46 = tail call ptr @lean_apply_4(ptr noundef %7, ptr noundef nonnull inttoptr (i64 1 to ptr), ptr noundef nonnull inttoptr (i64 1 to ptr), ptr noundef %26, ptr noundef nonnull %35) #4
  ret ptr %46
}